target datalayout = "e-m:e-p270:32:32-p271:32:32-p272:64:64-i64:64-i128:128-f80:128-n8:16:32:64-S128"
target triple = "x86_64-pc-linux-gnu"

@.str.5 = private unnamed_addr constant [9 x i8] c"pgm.port\00", align 1
@.str.140 = private unnamed_addr constant [28 x i8] c"Pragmatic General Multicast\00", align 1
@.str.141 = private unnamed_addr constant [4 x i8] c"PGM\00", align 1
@.str.142 = private unnamed_addr constant [4 x i8] c"pgm\00", align 1
@proto_pgm = internal global i32 0, align 4
@pgm_handle = internal global ptr null, align 8
@.str.143 = private unnamed_addr constant [9 x i8] c"PGM port\00", align 1
@subdissector_table = internal global ptr null, align 8
@.str.144 = private unnamed_addr constant [18 x i8] c"PGM data fallback\00", align 1
@heur_subdissector_list = internal global ptr null, align 8
@.str.145 = private unnamed_addr constant [15 x i8] c"check_checksum\00", align 1
@.str.146 = private unnamed_addr constant [53 x i8] c"Check the validity of the PGM checksum when possible\00", align 1
@.str.147 = private unnamed_addr constant [50 x i8] c"Whether to check the validity of the PGM checksum\00", align 1
@pgm_check_checksum = internal global i8 1, align 1

; Function Attrs: null_pointer_is_valid sspstrong uwtable
define hidden void @proto_register_pgm() #0 {
  %1 = alloca ptr, align 8
  %2 = alloca ptr, align 8
  call void @llvm.lifetime.start.p0(i64 8, ptr %1) #7
  call void @llvm.lifetime.start.p0(i64 8, ptr %2) #7
  %3 = call i32 @proto_register_protocol(ptr noundef @.str.140, ptr noundef @.str.141, ptr noundef @.str.142)
  store i32 %3, ptr @proto_pgm, align 4
  %4 = load i32, ptr @proto_pgm, align 4
  call void @proto_register_field_array(i32 noundef %4, ptr noundef @proto_register_pgm.hf, i32 noundef 86)
  call void @proto_register_subtree_array(ptr noundef @proto_register_pgm.ett, i32 noundef 18)
  %5 = load i32, ptr @proto_pgm, align 4
  %6 = call ptr @expert_register_protocol(i32 noundef %5)
  store ptr %6, ptr %2, align 8
  %7 = load ptr, ptr %2, align 8
  call void @expert_register_field_array(ptr noundef %7, ptr noundef @proto_register_pgm.ei, i32 noundef 5)
  %8 = load i32, ptr @proto_pgm, align 4
  %9 = call ptr @register_dissector(ptr noundef @.str.142, ptr noundef @dissect_pgm, i32 noundef %8)
  store ptr %9, ptr @pgm_handle, align 8
  %10 = load i32, ptr @proto_pgm, align 4
  %11 = call ptr @register_dissector_table(ptr noundef @.str.5, ptr noundef @.str.143, i32 noundef %10, i32 noundef 5, i32 noundef 1)
  store ptr %11, ptr @subdissector_table, align 8
  %12 = load i32, ptr @proto_pgm, align 4
  %13 = call ptr @register_heur_dissector_list_with_description(ptr noundef @.str.142, ptr noundef @.str.144, i32 noundef %12)
  store ptr %13, ptr @heur_subdissector_list, align 8
  %14 = load i32, ptr @proto_pgm, align 4
  %15 = call ptr @prefs_register_protocol(i32 noundef %14, ptr noundef null)
  store ptr %15, ptr %1, align 8
  %16 = load ptr, ptr %1, align 8
  call void @prefs_register_bool_preference(ptr noundef %16, ptr noundef @.str.145, ptr noundef @.str.146, ptr noundef @.str.147, ptr noundef @pgm_check_checksum)
  call void @llvm.lifetime.end.p0(i64 8, ptr %2) #7
  call void @llvm.lifetime.end.p0(i64 8, ptr %1) #7
  ret void
}