; Function Attrs: null_pointer_is_valid sspstrong uwtable
define hidden void @proto_register_pgm() local_unnamed_addr #0 {
  %1 = tail call i32 @proto_register_protocol(ptr noundef nonnull @.str.140, ptr noundef nonnull @.str.141, ptr noundef nonnull @.str.142)
  store i32 %1, ptr @proto_pgm, align 4
  tail call void @proto_register_field_array(i32 noundef %1, ptr noundef nonnull @proto_register_pgm.hf, i32 noundef 86)
  tail call void @proto_register_subtree_array(ptr noundef nonnull @proto_register_pgm.ett, i32 noundef 18)
  %2 = load i32, ptr @proto_pgm, align 4
  %3 = tail call ptr @expert_register_protocol(i32 noundef %2)
  tail call void @expert_register_field_array(ptr noundef %3, ptr noundef nonnull @proto_register_pgm.ei, i32 noundef 5)
  %4 = load i32, ptr @proto_pgm, align 4
  %5 = tail call ptr @register_dissector(ptr noundef nonnull @.str.142, ptr noundef nonnull @dissect_pgm, i32 noundef %4)
  store ptr %5, ptr @pgm_handle, align 8
  %6 = load i32, ptr @proto_pgm, align 4
  %7 = tail call ptr @register_dissector_table(ptr noundef nonnull @.str.5, ptr noundef nonnull @.str.143, i32 noundef %6, i32 noundef 5, i32 noundef 1)
  store ptr %7, ptr @subdissector_table, align 8
  %8 = load i32, ptr @proto_pgm, align 4
  %9 = tail call ptr @register_heur_dissector_list_with_description(ptr noundef nonnull @.str.142, ptr noundef nonnull @.str.144, i32 noundef %8)
  store ptr %9, ptr @heur_subdissector_list, align 8
  %10 = load i32, ptr @proto_pgm, align 4
  %11 = tail call ptr @prefs_register_protocol(i32 noundef %10, ptr noundef null)
  tail call void @prefs_register_bool_preference(ptr noundef %11, ptr noundef nonnull @.str.145, ptr noundef nonnull @.str.146, ptr noundef nonnull @.str.147, ptr noundef nonnull @pgm_check_checksum)
  ret void
}